; Function Attrs: nounwind sspstrong uwtable
define dso_local range(i32 -2, 1) i32 @cpu_watchpoint_remove(ptr noundef %cpu, i64 noundef %addr, i64 noundef %len, i32 noundef %flags) local_unnamed_addr #0 {
entry:
  %watchpoints = getelementptr inbounds nuw i8, ptr %cpu, i64 600
  %wp.08 = load ptr, ptr %watchpoints, align 8
  %tobool.not9 = icmp eq ptr %wp.08, null
  br i1 %tobool.not9, label %return, label %for.body

for.body:                                         ; preds = %entry, %for.inc
  %wp.010 = phi ptr [ %wp.0, %for.inc ], [ %wp.08, %entry ]
  %0 = load i64, ptr %wp.010, align 8
  %cmp = icmp eq i64 %addr, %0
  br i1 %cmp, label %land.lhs.true, label %for.inc

land.lhs.true:                                    ; preds = %for.body
  %len1 = getelementptr inbounds nuw i8, ptr %wp.010, i64 8
  %1 = load i64, ptr %len1, align 8
  %cmp2 = icmp eq i64 %len, %1
  br i1 %cmp2, label %land.lhs.true3, label %for.inc

land.lhs.true3:                                   ; preds = %land.lhs.true
  %flags4 = getelementptr inbounds nuw i8, ptr %wp.010, i64 28
  %2 = load i32, ptr %flags4, align 4
  %and = and i32 %2, -193
  %cmp5 = icmp eq i32 %flags, %and
  br i1 %cmp5, label %if.then, label %for.inc

if.then:                                          ; preds = %land.lhs.true3
  %entry1.i = getelementptr inbounds nuw i8, ptr %wp.010, i64 32
  %3 = load ptr, ptr %entry1.i, align 8
  %cmp.not.i = icmp eq ptr %3, null
  %tql_prev7.i = getelementptr inbounds nuw i8, ptr %wp.010, i64 40
  %4 = load ptr, ptr %tql_prev7.i, align 8
  br i1 %cmp.not.i, label %if.else.i, label %if.then.i

if.then.i:                                        ; preds = %if.then
  %tql_prev5.i = getelementptr inbounds nuw i8, ptr %3, i64 40
  store ptr %4, ptr %tql_prev5.i, align 8
  br label %cpu_watchpoint_remove_by_ref.exit

if.else.i:                                        ; preds = %if.then
  %tql_prev8.i = getelementptr inbounds nuw i8, ptr %cpu, i64 608
  store ptr %4, ptr %tql_prev8.i, align 8
  br label %cpu_watchpoint_remove_by_ref.exit

cpu_watchpoint_remove_by_ref.exit:                ; preds = %if.then.i, %if.else.i
  %5 = load ptr, ptr %entry1.i, align 8
  store ptr %5, ptr %4, align 8
  tail call void @llvm.memset.p0.i64(ptr noundef nonnull align 8 dereferenceable(16) %entry1.i, i8 0, i64 16, i1 false)
  %6 = load i64, ptr %wp.010, align 8
  tail call void @tlb_flush_page(ptr noundef %cpu, i64 noundef %6) #8
  tail call void @g_free(ptr noundef nonnull %wp.010) #8
  br label %return

for.inc:                                          ; preds = %for.body, %land.lhs.true, %land.lhs.true3
  %entry6 = getelementptr inbounds nuw i8, ptr %wp.010, i64 32
  %wp.0 = load ptr, ptr %entry6, align 8
  %tobool.not = icmp eq ptr %wp.0, null
  br i1 %tobool.not, label %return, label %for.body, !llvm.loop !5

return:                                           ; preds = %for.inc, %entry, %cpu_watchpoint_remove_by_ref.exit
  %retval.0 = phi i32 [ 0, %cpu_watchpoint_remove_by_ref.exit ], [ -2, %entry ], [ -2, %for.inc ]
  ret i32 %retval.0
}